target datalayout = "e-m:e-p270:32:32-p271:32:32-p272:64:64-i64:64-i128:128-f80:128-n8:16:32:64-S128"
target triple = "x86_64-unknown-linux-gnu"

%struct.PtyChardev = type { %struct.Chardev, ptr, i32, i32, ptr }
%struct.Chardev = type { %struct.Object, %struct.QemuMutex, ptr, ptr, ptr, i32, i32, i8, ptr, ptr, [1 x i64] }
%struct.Object = type { ptr, ptr, ptr, i32, ptr }
%struct.QemuMutex = type { %union.pthread_mutex_t, i8 }
%union.pthread_mutex_t = type { %struct.__pthread_mutex_s }
%struct.__pthread_mutex_s = type { i32, i32, i32, i32, i32, i16, i16, %struct.__pthread_internal_list }
%struct.__pthread_internal_list = type { ptr, ptr }

@.str = private unnamed_addr constant [12 x i8] c"chardev-pty\00", align 1
@.str.1 = private unnamed_addr constant [8 x i8] c"chardev\00", align 1
@.str.2 = private unnamed_addr constant [101 x i8] c"/home/dtcxzyw/WorkSpace/Projects/compilers/llvm-opt-benchmark/bench/qemu/qemu/include/chardev/char.h\00", align 1
@__func__.CHARDEV = private unnamed_addr constant [8 x i8] c"CHARDEV\00", align 1
@.str.3 = private unnamed_addr constant [27 x i8] c"../qemu/chardev/char-pty.c\00", align 1
@__func__.PTY_CHARDEV = private unnamed_addr constant [12 x i8] c"PTY_CHARDEV\00", align 1

; Function Attrs: nounwind sspstrong uwtable
define internal void @pty_chr_timer_cancel(ptr noundef %s) #0 {
entry:
  %s.addr = alloca ptr, align 8
  store ptr %s, ptr %s.addr, align 8
  %0 = load ptr, ptr %s.addr, align 8
  %timer_src = getelementptr inbounds %struct.PtyChardev, ptr %0, i32 0, i32 4
  %1 = load ptr, ptr %timer_src, align 8
  %tobool = icmp ne ptr %1, null
  br i1 %tobool, label %if.then, label %if.end

if.then:                                          ; preds = %entry
  %2 = load ptr, ptr %s.addr, align 8
  %timer_src1 = getelementptr inbounds %struct.PtyChardev, ptr %2, i32 0, i32 4
  %3 = load ptr, ptr %timer_src1, align 8
  call void @g_source_destroy(ptr noundef %3)
  %4 = load ptr, ptr %s.addr, align 8
  %timer_src2 = getelementptr inbounds %struct.PtyChardev, ptr %4, i32 0, i32 4
  %5 = load ptr, ptr %timer_src2, align 8
  call void @g_source_unref(ptr noundef %5)
  %6 = load ptr, ptr %s.addr, align 8
  %timer_src3 = getelementptr inbounds %struct.PtyChardev, ptr %6, i32 0, i32 4
  store ptr null, ptr %timer_src3, align 8
  br label %if.end

if.end:                                           ; preds = %if.then, %entry
  ret void
}

; Function Attrs: nounwind sspstrong uwtable
define internal ptr @PTY_CHARDEV(ptr noundef %obj) #0 {
entry:
  %obj.addr = alloca ptr, align 8
  store ptr %obj, ptr %obj.addr, align 8
  %0 = load ptr, ptr %obj.addr, align 8
  %call = call ptr @object_dynamic_cast_assert(ptr noundef %0, ptr noundef @.str, ptr noundef @.str.3, i32 noundef 48, ptr noundef @__func__.PTY_CHARDEV)
  ret ptr %call
}

; Function Attrs: nounwind sspstrong uwtable
define internal ptr @CHARDEV(ptr noundef %obj) #0 {
entry:
  %obj.addr = alloca ptr, align 8
  store ptr %obj, ptr %obj.addr, align 8
  %0 = load ptr, ptr %obj.addr, align 8
  %call = call ptr @object_dynamic_cast_assert(ptr noundef %0, ptr noundef @.str.1, ptr noundef @.str.2, i32 noundef 231, ptr noundef @__func__.CHARDEV)
  ret ptr %call
}

; Function Attrs: nounwind sspstrong uwtable
define internal void @char_pty_finalize(ptr noundef %obj) #0 {
entry:
  %obj.addr = alloca ptr, align 8
  %chr = alloca ptr, align 8
  %s = alloca ptr, align 8
  store ptr %obj, ptr %obj.addr, align 8
  %0 = load ptr, ptr %obj.addr, align 8
  %call = call ptr @CHARDEV(ptr noundef %0)
  store ptr %call, ptr %chr, align 8
  %1 = load ptr, ptr %obj.addr, align 8
  %call1 = call ptr @PTY_CHARDEV(ptr noundef %1)
  store ptr %call1, ptr %s, align 8
  %2 = load ptr, ptr %chr, align 8
  call void @pty_chr_state(ptr noundef %2, i32 noundef 0)
  %3 = load ptr, ptr %s, align 8
  %ioc = getelementptr inbounds %struct.PtyChardev, ptr %3, i32 0, i32 1
  %4 = load ptr, ptr %ioc, align 8
  call void @object_unref(ptr noundef %4)
  %5 = load ptr, ptr %s, align 8
  call void @pty_chr_timer_cancel(ptr noundef %5)
  %6 = load ptr, ptr %chr, align 8
  call void @qemu_chr_be_event(ptr noundef %6, i32 noundef 4)
  ret void
}