; Function Attrs: nounwind sspstrong uwtable
define internal void @char_pty_finalize(ptr noundef %obj) #0 {
entry:
  %call.i = tail call ptr @object_dynamic_cast_assert(ptr noundef %obj, ptr noundef nonnull @.str.1, ptr noundef nonnull @.str.2, i32 noundef 231, ptr noundef nonnull @__func__.CHARDEV) #9
  %call.i4 = tail call ptr @object_dynamic_cast_assert(ptr noundef %obj, ptr noundef nonnull @.str, ptr noundef nonnull @.str.3, i32 noundef 48, ptr noundef nonnull @__func__.PTY_CHARDEV) #9
  tail call fastcc void @pty_chr_state(ptr noundef %call.i, i32 noundef 0)
  %ioc = getelementptr inbounds nuw i8, ptr %call.i4, i64 152
  %0 = load ptr, ptr %ioc, align 8
  tail call void @object_unref(ptr noundef %0) #9
  %timer_src.i = getelementptr inbounds nuw i8, ptr %call.i4, i64 168
  %1 = load ptr, ptr %timer_src.i, align 8
  %tobool.not.i = icmp eq ptr %1, null
  br i1 %tobool.not.i, label %pty_chr_timer_cancel.exit, label %if.then.i

if.then.i:                                        ; preds = %entry
  tail call void @g_source_destroy(ptr noundef nonnull %1) #9
  %2 = load ptr, ptr %timer_src.i, align 8
  tail call void @g_source_unref(ptr noundef %2) #9
  store ptr null, ptr %timer_src.i, align 8
  br label %pty_chr_timer_cancel.exit

pty_chr_timer_cancel.exit:                        ; preds = %entry, %if.then.i
  tail call void @qemu_chr_be_event(ptr noundef %call.i, i32 noundef 4) #9
  ret void
}